target datalayout = "e-m:e-p270:32:32-p271:32:32-p272:64:64-i64:64-i128:128-f80:128-n8:16:32:64-S128"
target triple = "x86_64-pc-linux-gnu"

%struct.archive_write = type { %struct.archive, i32, i64, i64, ptr, i64, ptr, ptr, ptr, ptr, ptr, i32, i32, ptr, ptr, ptr, ptr, ptr, ptr, ptr, ptr, ptr, ptr, ptr, ptr, ptr, ptr }
%struct.archive = type { i32, i32, ptr, i32, ptr, i32, i32, ptr, %struct.archive_string, ptr, i32, i32, ptr, ptr, i64, i64, i64, i8, i64 }
%struct.archive_string = type { ptr, i64, i64 }

@.str.4 = private unnamed_addr constant [28 x i8] c"archive_write_set_skip_file\00", align 1

; Function Attrs: nounwind uwtable
define dso_local i32 @archive_write_set_skip_file(ptr noundef %0, i64 noundef %1, i64 noundef %2) #0 {
  %4 = alloca i32, align 4
  %5 = alloca ptr, align 8
  %6 = alloca i64, align 8
  %7 = alloca i64, align 8
  %8 = alloca ptr, align 8
  %9 = alloca i32, align 4
  %10 = alloca i32, align 4
  store ptr %0, ptr %5, align 8, !tbaa !26
  store i64 %1, ptr %6, align 8, !tbaa !29
  store i64 %2, ptr %7, align 8, !tbaa !29
  call void @llvm.lifetime.start.p0(i64 8, ptr %8) #9
  %11 = load ptr, ptr %5, align 8, !tbaa !26
  store ptr %11, ptr %8, align 8, !tbaa !4
  br label %12

12:                                               ; preds = %3
  call void @llvm.lifetime.start.p0(i64 4, ptr %9) #9
  %13 = load ptr, ptr %8, align 8, !tbaa !4
  %14 = getelementptr inbounds nuw %struct.archive_write, ptr %13, i32 0, i32 0
  %15 = call i32 @__archive_check_magic(ptr noundef %14, i32 noundef -1329217314, i32 noundef 32767, ptr noundef @.str.4)
  store i32 %15, ptr %9, align 4, !tbaa !28
  %16 = load i32, ptr %9, align 4, !tbaa !28
  %17 = icmp eq i32 %16, -30
  br i1 %17, label %18, label %19

18:                                               ; preds = %12
  store i32 -30, ptr %4, align 4
  store i32 1, ptr %10, align 4
  br label %20

19:                                               ; preds = %12
  store i32 0, ptr %10, align 4
  br label %20

20:                                               ; preds = %19, %18
  call void @llvm.lifetime.end.p0(i64 4, ptr %9) #9
  %21 = load i32, ptr %10, align 4
  switch i32 %21, label %33 [
    i32 0, label %22
  ]

22:                                               ; preds = %20
  br label %23

23:                                               ; preds = %22
  br label %24

24:                                               ; preds = %23
  %25 = load ptr, ptr %8, align 8, !tbaa !4
  %26 = getelementptr inbounds nuw %struct.archive_write, ptr %25, i32 0, i32 1
  store i32 1, ptr %26, align 8, !tbaa !30
  %27 = load i64, ptr %6, align 8, !tbaa !29
  %28 = load ptr, ptr %8, align 8, !tbaa !4
  %29 = getelementptr inbounds nuw %struct.archive_write, ptr %28, i32 0, i32 2
  store i64 %27, ptr %29, align 8, !tbaa !31
  %30 = load i64, ptr %7, align 8, !tbaa !29
  %31 = load ptr, ptr %8, align 8, !tbaa !4
  %32 = getelementptr inbounds nuw %struct.archive_write, ptr %31, i32 0, i32 3
  store i64 %30, ptr %32, align 8, !tbaa !32
  store i32 0, ptr %4, align 4
  store i32 1, ptr %10, align 4
  br label %33

33:                                               ; preds = %24, %20
  call void @llvm.lifetime.end.p0(i64 8, ptr %8) #9
  %34 = load i32, ptr %4, align 4
  ret i32 %34
}