; Function Attrs: nounwind uwtable
define dso_local range(i32 -30, 1) i32 @archive_write_set_skip_file(ptr noundef %0, i64 noundef %1, i64 noundef %2) local_unnamed_addr #3 {
  %4 = tail call i32 @__archive_check_magic(ptr noundef %0, i32 noundef -1329217314, i32 noundef 32767, ptr noundef nonnull @.str.4) #13
  %.not = icmp eq i32 %4, -30
  br i1 %.not, label %9, label %5

5:                                                ; preds = %3
  %6 = getelementptr inbounds nuw i8, ptr %0, i64 144
  store i32 1, ptr %6, align 8, !tbaa !23
  %7 = getelementptr inbounds nuw i8, ptr %0, i64 152
  store i64 %1, ptr %7, align 8, !tbaa !24
  %8 = getelementptr inbounds nuw i8, ptr %0, i64 160
  store i64 %2, ptr %8, align 8, !tbaa !25
  br label %9

9:                                                ; preds = %3, %5
  %.1 = phi i32 [ 0, %5 ], [ -30, %3 ]
  ret i32 %.1
}